target datalayout = "e-m:e-p270:32:32-p271:32:32-p272:64:64-i64:64-i128:128-f80:128-n8:16:32:64-S128"
target triple = "x86_64-unknown-linux-gnu"

%struct.UResourceBundle = type { ptr, ptr, ptr, ptr, ptr, [64 x i8], i32, i32, i8, i8, i32, i32, i32, i32 }
%struct.UResourceDataEntry = type { ptr, ptr, ptr, ptr, ptr, %struct.ResourceData, [3 x i8], i32, i32 }
%struct.ResourceData = type { ptr, ptr, ptr, ptr, i32, i32, ptr, i32, i32, i8, i8, i8, i8 }
%"class.icu_75::ResourceTracer" = type { i8 }

@.str.12 = private unnamed_addr constant [7 x i8] c"string\00", align 1

; Function Attrs: mustprogress nounwind uwtable
define linkonce_odr void @_ZNK6icu_7514ResourceTracer5traceEPKc(ptr noundef nonnull align 1 dereferenceable(1) %this, ptr noundef %0) #0 comdat align 2 {
entry:
  %this.addr = alloca ptr, align 8
  %.addr = alloca ptr, align 8
  store ptr %this, ptr %this.addr, align 8
  store ptr %0, ptr %.addr, align 8
  ret void
}

; Function Attrs: mustprogress uwtable
define void @ures_close_75(ptr noundef %resB) #1 {
entry:
  %resB.addr = alloca ptr, align 8
  store ptr %resB, ptr %resB.addr, align 8
  %0 = load ptr, ptr %resB.addr, align 8
  call void @_ZL16ures_closeBundleP15UResourceBundlea(ptr noundef %0, i8 noundef signext 1)
  ret void
}

; Function Attrs: mustprogress uwtable
define linkonce_odr noundef ptr @_ZN6icu_7513res_getStringERKNS_14ResourceTracerEPK12ResourceDatajPi(ptr noundef nonnull align 1 dereferenceable(1) %traceInfo, ptr noundef %pResData, i32 noundef %res, ptr noundef %pLength) #1 comdat {
entry:
  %traceInfo.addr = alloca ptr, align 8
  %pResData.addr = alloca ptr, align 8
  %res.addr = alloca i32, align 4
  %pLength.addr = alloca ptr, align 8
  store ptr %traceInfo, ptr %traceInfo.addr, align 8
  store ptr %pResData, ptr %pResData.addr, align 8
  store i32 %res, ptr %res.addr, align 4
  store ptr %pLength, ptr %pLength.addr, align 8
  %0 = load ptr, ptr %traceInfo.addr, align 8
  call void @_ZNK6icu_7514ResourceTracer5traceEPKc(ptr noundef nonnull align 1 dereferenceable(1) %0, ptr noundef @.str.12)
  %1 = load ptr, ptr %pResData.addr, align 8
  %2 = load i32, ptr %res.addr, align 4
  %3 = load ptr, ptr %pLength.addr, align 8
  %call = call ptr @res_getStringNoTrace_75(ptr noundef %1, i32 noundef %2, ptr noundef %3)
  ret ptr %call
}

; Function Attrs: mustprogress nounwind uwtable
define linkonce_odr void @_ZN6icu_7514ResourceTracerC2EPKvPKc(ptr noundef nonnull align 1 dereferenceable(1) %this, ptr noundef %0, ptr noundef %1) unnamed_addr #0 comdat align 2 {
entry:
  %this.addr = alloca ptr, align 8
  %.addr = alloca ptr, align 8
  %.addr1 = alloca ptr, align 8
  store ptr %this, ptr %this.addr, align 8
  store ptr %0, ptr %.addr, align 8
  store ptr %1, ptr %.addr1, align 8
  ret void
}

; Function Attrs: mustprogress nounwind uwtable
define internal noundef signext i8 @_ZL9U_SUCCESS10UErrorCode(i32 noundef %code) #0 {
entry:
  %code.addr = alloca i32, align 4
  store i32 %code, ptr %code.addr, align 4
  %0 = load i32, ptr %code.addr, align 4
  %cmp = icmp sle i32 %0, 0
  %conv = zext i1 %cmp to i8
  ret i8 %conv
}

; Function Attrs: mustprogress nounwind uwtable
define linkonce_odr noundef nonnull align 8 dereferenceable(64) ptr @_ZNK15UResourceBundle10getResDataEv(ptr noundef nonnull align 8 dereferenceable(136) %this) #0 comdat align 2 {
entry:
  %this.addr = alloca ptr, align 8
  store ptr %this, ptr %this.addr, align 8
  %this1 = load ptr, ptr %this.addr, align 8
  %fData = getelementptr inbounds %struct.UResourceBundle, ptr %this1, i32 0, i32 1
  %0 = load ptr, ptr %fData, align 8
  %fData2 = getelementptr inbounds %struct.UResourceDataEntry, ptr %0, i32 0, i32 5
  ret ptr %fData2
}

; Function Attrs: mustprogress nounwind uwtable
define internal noundef signext i8 @_ZL9U_FAILURE10UErrorCode(i32 noundef %code) #0 {
entry:
  %code.addr = alloca i32, align 4
  store i32 %code, ptr %code.addr, align 4
  %0 = load i32, ptr %code.addr, align 4
  %cmp = icmp sgt i32 %0, 0
  %conv = zext i1 %cmp to i8
  ret i8 %conv
}

; Function Attrs: mustprogress uwtable
define ptr @ures_getStringByKey_75(ptr noundef %resB, ptr noundef %inKey, ptr noundef %len, ptr noundef %status) #1 {
entry:
  %retval = alloca ptr, align 8
  %resB.addr = alloca ptr, align 8
  %inKey.addr = alloca ptr, align 8
  %len.addr = alloca ptr, align 8
  %status.addr = alloca ptr, align 8
  %res = alloca i32, align 4
  %dataEntry = alloca ptr, align 8
  %key = alloca ptr, align 8
  %type = alloca i32, align 4
  %t = alloca i32, align 4
  %ref.tmp = alloca %"class.icu_75::ResourceTracer", align 1
  %result = alloca ptr, align 8
  %tempRes = alloca ptr, align 8
  %ref.tmp32 = alloca %"class.icu_75::ResourceTracer", align 1
  %result36 = alloca ptr, align 8
  %tempRes37 = alloca ptr, align 8
  store ptr %resB, ptr %resB.addr, align 8
  store ptr %inKey, ptr %inKey.addr, align 8
  store ptr %len, ptr %len.addr, align 8
  store ptr %status, ptr %status.addr, align 8
  store i32 -1, ptr %res, align 4
  store ptr null, ptr %dataEntry, align 8
  %0 = load ptr, ptr %inKey.addr, align 8
  store ptr %0, ptr %key, align 8
  %1 = load ptr, ptr %status.addr, align 8
  %cmp = icmp eq ptr %1, null
  br i1 %cmp, label %if.then, label %lor.lhs.false

lor.lhs.false:                                    ; preds = %entry
  %2 = load ptr, ptr %status.addr, align 8
  %3 = load i32, ptr %2, align 4
  %call = call noundef signext i8 @_ZL9U_FAILURE10UErrorCode(i32 noundef %3)
  %tobool = icmp ne i8 %call, 0
  br i1 %tobool, label %if.then, label %if.end

if.then:                                          ; preds = %lor.lhs.false, %entry
  store ptr null, ptr %retval, align 8
  br label %return

if.end:                                           ; preds = %lor.lhs.false
  %4 = load ptr, ptr %resB.addr, align 8
  %cmp1 = icmp eq ptr %4, null
  br i1 %cmp1, label %if.then2, label %if.end3

if.then2:                                         ; preds = %if.end
  %5 = load ptr, ptr %status.addr, align 8
  store i32 1, ptr %5, align 4
  store ptr null, ptr %retval, align 8
  br label %return

if.end3:                                          ; preds = %if.end
  %6 = load ptr, ptr %resB.addr, align 8
  %fRes = getelementptr inbounds %struct.UResourceBundle, ptr %6, i32 0, i32 7
  %7 = load i32, ptr %fRes, align 4
  %shr = lshr i32 %7, 28
  store i32 %shr, ptr %type, align 4
  %8 = load i32, ptr %type, align 4
  %cmp4 = icmp eq i32 %8, 2
  br i1 %cmp4, label %if.then9, label %lor.lhs.false5

lor.lhs.false5:                                   ; preds = %if.end3
  %9 = load i32, ptr %type, align 4
  %cmp6 = icmp eq i32 %9, 5
  br i1 %cmp6, label %if.then9, label %lor.lhs.false7

lor.lhs.false7:                                   ; preds = %lor.lhs.false5
  %10 = load i32, ptr %type, align 4
  %cmp8 = icmp eq i32 %10, 4
  br i1 %cmp8, label %if.then9, label %if.else43

if.then9:                                         ; preds = %lor.lhs.false7, %lor.lhs.false5, %if.end3
  store i32 0, ptr %t, align 4
  %11 = load ptr, ptr %resB.addr, align 8
  %call10 = call noundef nonnull align 8 dereferenceable(64) ptr @_ZNK15UResourceBundle10getResDataEv(ptr noundef nonnull align 8 dereferenceable(136) %11)
  %12 = load ptr, ptr %resB.addr, align 8
  %fRes11 = getelementptr inbounds %struct.UResourceBundle, ptr %12, i32 0, i32 7
  %13 = load i32, ptr %fRes11, align 4
  %call12 = call i32 @res_getTableItemByKey_75(ptr noundef %call10, i32 noundef %13, ptr noundef %t, ptr noundef %key)
  store i32 %call12, ptr %res, align 4
  %14 = load i32, ptr %res, align 4
  %cmp13 = icmp eq i32 %14, -1
  br i1 %cmp13, label %if.then14, label %if.else29

if.then14:                                        ; preds = %if.then9
  %15 = load ptr, ptr %inKey.addr, align 8
  store ptr %15, ptr %key, align 8
  %16 = load ptr, ptr %resB.addr, align 8
  %fHasFallback = getelementptr inbounds %struct.UResourceBundle, ptr %16, i32 0, i32 8
  %17 = load i8, ptr %fHasFallback, align 8
  %tobool15 = icmp ne i8 %17, 0
  br i1 %tobool15, label %if.then16, label %if.else27

if.then16:                                        ; preds = %if.then14
  %18 = load ptr, ptr %resB.addr, align 8
  %19 = load ptr, ptr %status.addr, align 8
  %call17 = call noundef ptr @_ZL15getFallbackDataPK15UResourceBundlePPKcPjP10UErrorCode(ptr noundef %18, ptr noundef %key, ptr noundef %res, ptr noundef %19)
  store ptr %call17, ptr %dataEntry, align 8
  %20 = load ptr, ptr %status.addr, align 8
  %21 = load i32, ptr %20, align 4
  %call18 = call noundef signext i8 @_ZL9U_SUCCESS10UErrorCode(i32 noundef %21)
  %tobool19 = icmp ne i8 %call18, 0
  br i1 %tobool19, label %if.then20, label %if.else

if.then20:                                        ; preds = %if.then16
  %22 = load i32, ptr %res, align 4
  %shr21 = lshr i32 %22, 28
  switch i32 %shr21, label %sw.default [
    i32 0, label %sw.bb
    i32 6, label %sw.bb
    i32 3, label %sw.bb23
  ]

sw.bb:                                            ; preds = %if.then20, %if.then20
  %23 = load ptr, ptr %resB.addr, align 8
  %24 = load ptr, ptr %key, align 8
  call void @_ZN6icu_7514ResourceTracerC2EPKvPKc(ptr noundef nonnull align 1 dereferenceable(1) %ref.tmp, ptr noundef %23, ptr noundef %24)
  %25 = load ptr, ptr %dataEntry, align 8
  %fData = getelementptr inbounds %struct.UResourceDataEntry, ptr %25, i32 0, i32 5
  %26 = load i32, ptr %res, align 4
  %27 = load ptr, ptr %len.addr, align 8
  %call22 = call noundef ptr @_ZN6icu_7513res_getStringERKNS_14ResourceTracerEPK12ResourceDatajPi(ptr noundef nonnull align 1 dereferenceable(1) %ref.tmp, ptr noundef %fData, i32 noundef %26, ptr noundef %27)
  store ptr %call22, ptr %retval, align 8
  br label %return

sw.bb23:                                          ; preds = %if.then20
  store ptr null, ptr %result, align 8
  %28 = load ptr, ptr %resB.addr, align 8
  %29 = load ptr, ptr %inKey.addr, align 8
  %30 = load ptr, ptr %status.addr, align 8
  %call24 = call ptr @ures_getByKey_75(ptr noundef %28, ptr noundef %29, ptr noundef null, ptr noundef %30)
  store ptr %call24, ptr %tempRes, align 8
  %31 = load ptr, ptr %tempRes, align 8
  %32 = load ptr, ptr %len.addr, align 8
  %33 = load ptr, ptr %status.addr, align 8
  %call25 = call ptr @ures_getString_75(ptr noundef %31, ptr noundef %32, ptr noundef %33)
  store ptr %call25, ptr %result, align 8
  %34 = load ptr, ptr %tempRes, align 8
  call void @ures_close_75(ptr noundef %34)
  %35 = load ptr, ptr %result, align 8
  store ptr %35, ptr %retval, align 8
  br label %return

sw.default:                                       ; preds = %if.then20
  %36 = load ptr, ptr %status.addr, align 8
  store i32 17, ptr %36, align 4
  br label %sw.epilog

sw.epilog:                                        ; preds = %sw.default
  br label %if.end26

if.else:                                          ; preds = %if.then16
  %37 = load ptr, ptr %status.addr, align 8
  store i32 2, ptr %37, align 4
  br label %if.end26

if.end26:                                         ; preds = %if.else, %sw.epilog
  br label %if.end28

if.else27:                                        ; preds = %if.then14
  %38 = load ptr, ptr %status.addr, align 8
  store i32 2, ptr %38, align 4
  br label %if.end28

if.end28:                                         ; preds = %if.else27, %if.end26
  br label %if.end42

if.else29:                                        ; preds = %if.then9
  %39 = load i32, ptr %res, align 4
  %shr30 = lshr i32 %39, 28
  switch i32 %shr30, label %sw.default40 [
    i32 0, label %sw.bb31
    i32 6, label %sw.bb31
    i32 3, label %sw.bb35
  ]

sw.bb31:                                          ; preds = %if.else29, %if.else29
  %40 = load ptr, ptr %resB.addr, align 8
  %41 = load ptr, ptr %key, align 8
  call void @_ZN6icu_7514ResourceTracerC2EPKvPKc(ptr noundef nonnull align 1 dereferenceable(1) %ref.tmp32, ptr noundef %40, ptr noundef %41)
  %42 = load ptr, ptr %resB.addr, align 8
  %call33 = call noundef nonnull align 8 dereferenceable(64) ptr @_ZNK15UResourceBundle10getResDataEv(ptr noundef nonnull align 8 dereferenceable(136) %42)
  %43 = load i32, ptr %res, align 4
  %44 = load ptr, ptr %len.addr, align 8
  %call34 = call noundef ptr @_ZN6icu_7513res_getStringERKNS_14ResourceTracerEPK12ResourceDatajPi(ptr noundef nonnull align 1 dereferenceable(1) %ref.tmp32, ptr noundef %call33, i32 noundef %43, ptr noundef %44)
  store ptr %call34, ptr %retval, align 8
  br label %return

sw.bb35:                                          ; preds = %if.else29
  store ptr null, ptr %result36, align 8
  %45 = load ptr, ptr %resB.addr, align 8
  %46 = load ptr, ptr %inKey.addr, align 8
  %47 = load ptr, ptr %status.addr, align 8
  %call38 = call ptr @ures_getByKey_75(ptr noundef %45, ptr noundef %46, ptr noundef null, ptr noundef %47)
  store ptr %call38, ptr %tempRes37, align 8
  %48 = load ptr, ptr %tempRes37, align 8
  %49 = load ptr, ptr %len.addr, align 8
  %50 = load ptr, ptr %status.addr, align 8
  %call39 = call ptr @ures_getString_75(ptr noundef %48, ptr noundef %49, ptr noundef %50)
  store ptr %call39, ptr %result36, align 8
  %51 = load ptr, ptr %tempRes37, align 8
  call void @ures_close_75(ptr noundef %51)
  %52 = load ptr, ptr %result36, align 8
  store ptr %52, ptr %retval, align 8
  br label %return

sw.default40:                                     ; preds = %if.else29
  %53 = load ptr, ptr %status.addr, align 8
  store i32 17, ptr %53, align 4
  br label %sw.epilog41

sw.epilog41:                                      ; preds = %sw.default40
  br label %if.end42

if.end42:                                         ; preds = %sw.epilog41, %if.end28
  br label %if.end44

if.else43:                                        ; preds = %lor.lhs.false7
  %54 = load ptr, ptr %status.addr, align 8
  store i32 17, ptr %54, align 4
  br label %if.end44

if.end44:                                         ; preds = %if.else43, %if.end42
  store ptr null, ptr %retval, align 8
  br label %return

return:                                           ; preds = %if.end44, %sw.bb35, %sw.bb31, %sw.bb23, %sw.bb, %if.then2, %if.then
  %55 = load ptr, ptr %retval, align 8
  ret ptr %55
}