; Function Attrs: mustprogress uwtable
define noundef ptr @ures_getStringByKey_75(ptr noundef %resB, ptr noundef %inKey, ptr noundef %len, ptr noundef %status) local_unnamed_addr #1 {
entry:
  %res = alloca i32, align 4
  %key = alloca ptr, align 8
  %t = alloca i32, align 4
  store ptr %inKey, ptr %key, align 8
  %cmp = icmp eq ptr %status, null
  br i1 %cmp, label %return, label %lor.lhs.false

lor.lhs.false:                                    ; preds = %entry
  %0 = load i32, ptr %status, align 4
  %cmp.i = icmp slt i32 %0, 1
  br i1 %cmp.i, label %if.end, label %return

if.end:                                           ; preds = %lor.lhs.false
  %cmp1 = icmp eq ptr %resB, null
  br i1 %cmp1, label %if.then2, label %if.end3

if.then2:                                         ; preds = %if.end
  store i32 1, ptr %status, align 4
  br label %return

if.end3:                                          ; preds = %if.end
  %fRes = getelementptr inbounds i8, ptr %resB, i64 108
  %1 = load i32, ptr %fRes, align 4
  %shr.mask = and i32 %1, -268435456
  %cmp4 = icmp eq i32 %shr.mask, 536870912
  %2 = and i32 %1, -536870912
  %3 = icmp eq i32 %2, 1073741824
  %or.cond1 = or i1 %cmp4, %3
  br i1 %or.cond1, label %if.then9, label %if.else43

if.then9:                                         ; preds = %if.end3
  store i32 0, ptr %t, align 4
  %fData.i = getelementptr inbounds i8, ptr %resB, i64 8
  %4 = load ptr, ptr %fData.i, align 8
  %fData2.i = getelementptr inbounds i8, ptr %4, i64 40
  %call12 = call i32 @res_getTableItemByKey_75(ptr noundef nonnull %fData2.i, i32 noundef %1, ptr noundef nonnull %t, ptr noundef nonnull %key)
  store i32 %call12, ptr %res, align 4
  %cmp13 = icmp eq i32 %call12, -1
  br i1 %cmp13, label %if.then14, label %if.else29

if.then14:                                        ; preds = %if.then9
  store ptr %inKey, ptr %key, align 8
  %fHasFallback = getelementptr inbounds i8, ptr %resB, i64 112
  %5 = load i8, ptr %fHasFallback, align 8
  %tobool15.not = icmp eq i8 %5, 0
  br i1 %tobool15.not, label %if.else27, label %if.then16

if.then16:                                        ; preds = %if.then14
  %call17 = call fastcc noundef ptr @_ZL15getFallbackDataPK15UResourceBundlePPKcPjP10UErrorCode(ptr noundef nonnull %resB, ptr noundef nonnull %key, ptr noundef nonnull %res, ptr noundef nonnull %status)
  %6 = load i32, ptr %status, align 4
  %cmp.i35 = icmp sgt i32 %6, 0
  br i1 %cmp.i35, label %if.else, label %if.then20

if.then20:                                        ; preds = %if.then16
  %7 = load i32, ptr %res, align 4
  %shr21 = lshr i32 %7, 28
  switch i32 %shr21, label %sw.default [
    i32 0, label %sw.bb
    i32 6, label %sw.bb
    i32 3, label %sw.bb23
  ]

sw.bb:                                            ; preds = %if.then20, %if.then20
  %fData = getelementptr inbounds i8, ptr %call17, i64 40
  %call.i = call noundef ptr @res_getStringNoTrace_75(ptr noundef nonnull %fData, i32 noundef %7, ptr noundef %len)
  br label %return

sw.bb23:                                          ; preds = %if.then20
  %call24 = call ptr @ures_getByKey_75(ptr noundef nonnull %resB, ptr noundef %inKey, ptr noundef null, ptr noundef nonnull %status)
  %call25 = call ptr @ures_getString_75(ptr noundef %call24, ptr noundef %len, ptr noundef nonnull %status)
  call fastcc void @_ZL16ures_closeBundleP15UResourceBundlea(ptr noundef %call24, i8 noundef signext 1)
  br label %return

sw.default:                                       ; preds = %if.then20
  store i32 17, ptr %status, align 4
  br label %return

if.else:                                          ; preds = %if.then16
  store i32 2, ptr %status, align 4
  br label %return

if.else27:                                        ; preds = %if.then14
  store i32 2, ptr %status, align 4
  br label %return

if.else29:                                        ; preds = %if.then9
  %shr30 = lshr i32 %call12, 28
  switch i32 %shr30, label %sw.default40 [
    i32 0, label %sw.bb31
    i32 6, label %sw.bb31
    i32 3, label %sw.bb35
  ]

sw.bb31:                                          ; preds = %if.else29, %if.else29
  %8 = load ptr, ptr %fData.i, align 8
  %fData2.i38 = getelementptr inbounds i8, ptr %8, i64 40
  %call.i39 = call noundef ptr @res_getStringNoTrace_75(ptr noundef nonnull %fData2.i38, i32 noundef %call12, ptr noundef %len)
  br label %return

sw.bb35:                                          ; preds = %if.else29
  %call38 = call ptr @ures_getByKey_75(ptr noundef nonnull %resB, ptr noundef %inKey, ptr noundef null, ptr noundef nonnull %status)
  %call39 = call ptr @ures_getString_75(ptr noundef %call38, ptr noundef %len, ptr noundef nonnull %status)
  call fastcc void @_ZL16ures_closeBundleP15UResourceBundlea(ptr noundef %call38, i8 noundef signext 1)
  br label %return

sw.default40:                                     ; preds = %if.else29
  store i32 17, ptr %status, align 4
  br label %return

if.else43:                                        ; preds = %if.end3
  store i32 17, ptr %status, align 4
  br label %return

return:                                           ; preds = %if.else43, %if.else27, %if.else, %sw.default, %sw.default40, %entry, %lor.lhs.false, %sw.bb35, %sw.bb31, %sw.bb23, %sw.bb, %if.then2
  %retval.0 = phi ptr [ null, %if.then2 ], [ %call25, %sw.bb23 ], [ %call.i, %sw.bb ], [ %call39, %sw.bb35 ], [ %call.i39, %sw.bb31 ], [ null, %lor.lhs.false ], [ null, %entry ], [ null, %sw.default40 ], [ null, %sw.default ], [ null, %if.else ], [ null, %if.else27 ], [ null, %if.else43 ]
  ret ptr %retval.0
}